target datalayout = "e-m:e-p270:32:32-p271:32:32-p272:64:64-i64:64-i128:128-f80:128-n8:16:32:64-S128"
target triple = "x86_64-unknown-linux-gnu"

%"class.zmq::encoder_base_t" = type { %"struct.zmq::i_encoder", ptr, i64, { i64, i64 }, i8, i64, ptr, ptr }
%"struct.zmq::i_encoder" = type { ptr }
%"class.zmq::v3_1_encoder_t" = type <{ %"class.zmq::encoder_base_t", [19 x i8], [5 x i8] }>
%"class.zmq::msg_t" = type { %union.anon }
%union.anon = type { %struct.anon }
%struct.anon = type { ptr, [34 x i8], i8, i8, i32, %"union.zmq::msg_t::group_t" }
%"union.zmq::msg_t::group_t" = type { %struct.anon.1 }
%struct.anon.1 = type { i8, ptr }

@_ZN3zmqL12sub_cmd_nameE = internal constant [11 x i8] c"\09SUBSCRIBE\00", align 1
@_ZN3zmqL15cancel_cmd_nameE = internal constant [8 x i8] c"\06CANCEL\00", align 1

; Function Attrs: mustprogress nounwind uwtable
define linkonce_odr void @_ZN3zmq14encoder_base_tINS_14v3_1_encoder_tEE9next_stepEPvmMS1_FvvEb(ptr noundef nonnull align 8 dereferenceable(72) %this, ptr noundef %write_pos_, i64 noundef %to_write_, i64 %next_.coerce0, i64 %next_.coerce1, i1 noundef zeroext %new_msg_flag_) #1 comdat align 2 {
entry:
  %next_ = alloca { i64, i64 }, align 8
  %this.addr = alloca ptr, align 8
  %write_pos_.addr = alloca ptr, align 8
  %to_write_.addr = alloca i64, align 8
  %next_.addr = alloca { i64, i64 }, align 8
  %new_msg_flag_.addr = alloca i8, align 1
  %0 = getelementptr inbounds { i64, i64 }, ptr %next_, i32 0, i32 0
  store i64 %next_.coerce0, ptr %0, align 8
  %1 = getelementptr inbounds { i64, i64 }, ptr %next_, i32 0, i32 1
  store i64 %next_.coerce1, ptr %1, align 8
  %next_1 = load { i64, i64 }, ptr %next_, align 8
  store ptr %this, ptr %this.addr, align 8
  store ptr %write_pos_, ptr %write_pos_.addr, align 8
  store i64 %to_write_, ptr %to_write_.addr, align 8
  store { i64, i64 } %next_1, ptr %next_.addr, align 8
  %frombool = zext i1 %new_msg_flag_ to i8
  store i8 %frombool, ptr %new_msg_flag_.addr, align 1
  %this2 = load ptr, ptr %this.addr, align 8
  %2 = load ptr, ptr %write_pos_.addr, align 8
  %_write_pos = getelementptr inbounds %"class.zmq::encoder_base_t", ptr %this2, i32 0, i32 1
  store ptr %2, ptr %_write_pos, align 8
  %3 = load i64, ptr %to_write_.addr, align 8
  %_to_write = getelementptr inbounds %"class.zmq::encoder_base_t", ptr %this2, i32 0, i32 2
  store i64 %3, ptr %_to_write, align 8
  %4 = load { i64, i64 }, ptr %next_.addr, align 8
  %_next = getelementptr inbounds %"class.zmq::encoder_base_t", ptr %this2, i32 0, i32 3
  store { i64, i64 } %4, ptr %_next, align 8
  %5 = load i8, ptr %new_msg_flag_.addr, align 1
  %tobool = trunc i8 %5 to i1
  %_new_msg_flag = getelementptr inbounds %"class.zmq::encoder_base_t", ptr %this2, i32 0, i32 4
  %frombool3 = zext i1 %tobool to i8
  store i8 %frombool3, ptr %_new_msg_flag, align 8
  ret void
}

; Function Attrs: mustprogress nounwind uwtable
define linkonce_odr void @_ZN3zmq10put_uint64EPhm(ptr noundef %buffer_, i64 noundef %value_) #1 comdat {
entry:
  %buffer_.addr = alloca ptr, align 8
  %value_.addr = alloca i64, align 8
  store ptr %buffer_, ptr %buffer_.addr, align 8
  store i64 %value_, ptr %value_.addr, align 8
  %0 = load i64, ptr %value_.addr, align 8
  %shr = lshr i64 %0, 56
  %and = and i64 %shr, 255
  %conv = trunc i64 %and to i8
  %1 = load ptr, ptr %buffer_.addr, align 8
  %arrayidx = getelementptr inbounds i8, ptr %1, i64 0
  store i8 %conv, ptr %arrayidx, align 1
  %2 = load i64, ptr %value_.addr, align 8
  %shr1 = lshr i64 %2, 48
  %and2 = and i64 %shr1, 255
  %conv3 = trunc i64 %and2 to i8
  %3 = load ptr, ptr %buffer_.addr, align 8
  %arrayidx4 = getelementptr inbounds i8, ptr %3, i64 1
  store i8 %conv3, ptr %arrayidx4, align 1
  %4 = load i64, ptr %value_.addr, align 8
  %shr5 = lshr i64 %4, 40
  %and6 = and i64 %shr5, 255
  %conv7 = trunc i64 %and6 to i8
  %5 = load ptr, ptr %buffer_.addr, align 8
  %arrayidx8 = getelementptr inbounds i8, ptr %5, i64 2
  store i8 %conv7, ptr %arrayidx8, align 1
  %6 = load i64, ptr %value_.addr, align 8
  %shr9 = lshr i64 %6, 32
  %and10 = and i64 %shr9, 255
  %conv11 = trunc i64 %and10 to i8
  %7 = load ptr, ptr %buffer_.addr, align 8
  %arrayidx12 = getelementptr inbounds i8, ptr %7, i64 3
  store i8 %conv11, ptr %arrayidx12, align 1
  %8 = load i64, ptr %value_.addr, align 8
  %shr13 = lshr i64 %8, 24
  %and14 = and i64 %shr13, 255
  %conv15 = trunc i64 %and14 to i8
  %9 = load ptr, ptr %buffer_.addr, align 8
  %arrayidx16 = getelementptr inbounds i8, ptr %9, i64 4
  store i8 %conv15, ptr %arrayidx16, align 1
  %10 = load i64, ptr %value_.addr, align 8
  %shr17 = lshr i64 %10, 16
  %and18 = and i64 %shr17, 255
  %conv19 = trunc i64 %and18 to i8
  %11 = load ptr, ptr %buffer_.addr, align 8
  %arrayidx20 = getelementptr inbounds i8, ptr %11, i64 5
  store i8 %conv19, ptr %arrayidx20, align 1
  %12 = load i64, ptr %value_.addr, align 8
  %shr21 = lshr i64 %12, 8
  %and22 = and i64 %shr21, 255
  %conv23 = trunc i64 %and22 to i8
  %13 = load ptr, ptr %buffer_.addr, align 8
  %arrayidx24 = getelementptr inbounds i8, ptr %13, i64 6
  store i8 %conv23, ptr %arrayidx24, align 1
  %14 = load i64, ptr %value_.addr, align 8
  %and25 = and i64 %14, 255
  %conv26 = trunc i64 %and25 to i8
  %15 = load ptr, ptr %buffer_.addr, align 8
  %arrayidx27 = getelementptr inbounds i8, ptr %15, i64 7
  store i8 %conv26, ptr %arrayidx27, align 1
  ret void
}

; Function Attrs: mustprogress nounwind uwtable
define linkonce_odr noundef zeroext i1 @_ZNK3zmq5msg_t9is_cancelEv(ptr noundef nonnull align 8 dereferenceable(64) %this) #1 comdat align 2 {
entry:
  %this.addr = alloca ptr, align 8
  store ptr %this, ptr %this.addr, align 8
  %this1 = load ptr, ptr %this.addr, align 8
  %_u = getelementptr inbounds %"class.zmq::msg_t", ptr %this1, i32 0, i32 0
  %flags = getelementptr inbounds %struct.anon, ptr %_u, i32 0, i32 3
  %0 = load i8, ptr %flags, align 1
  %conv = zext i8 %0 to i32
  %and = and i32 %conv, 28
  %cmp = icmp eq i32 %and, 16
  ret i1 %cmp
}

; Function Attrs: mustprogress nounwind uwtable
define linkonce_odr noundef zeroext i1 @_ZNK3zmq5msg_t12is_subscribeEv(ptr noundef nonnull align 8 dereferenceable(64) %this) #1 comdat align 2 {
entry:
  %this.addr = alloca ptr, align 8
  store ptr %this, ptr %this.addr, align 8
  %this1 = load ptr, ptr %this.addr, align 8
  %_u = getelementptr inbounds %"class.zmq::msg_t", ptr %this1, i32 0, i32 0
  %flags = getelementptr inbounds %struct.anon, ptr %_u, i32 0, i32 3
  %0 = load i8, ptr %flags, align 1
  %conv = zext i8 %0 to i32
  %and = and i32 %conv, 28
  %cmp = icmp eq i32 %and, 12
  ret i1 %cmp
}

; Function Attrs: mustprogress nounwind uwtable
define linkonce_odr noundef ptr @_ZN3zmq14encoder_base_tINS_14v3_1_encoder_tEE11in_progressEv(ptr noundef nonnull align 8 dereferenceable(72) %this) #1 comdat align 2 {
entry:
  %this.addr = alloca ptr, align 8
  store ptr %this, ptr %this.addr, align 8
  %this1 = load ptr, ptr %this.addr, align 8
  %_in_progress = getelementptr inbounds %"class.zmq::encoder_base_t", ptr %this1, i32 0, i32 7
  %0 = load ptr, ptr %_in_progress, align 8
  ret ptr %0
}

; Function Attrs: mustprogress uwtable
define void @_ZN3zmq14v3_1_encoder_t13message_readyEv(ptr noundef nonnull align 8 dereferenceable(96) %this) #0 align 2 {
entry:
  %this.addr = alloca ptr, align 8
  %size = alloca i64, align 8
  %header_size = alloca i64, align 8
  %protocol_flags = alloca ptr, align 8
  %coerce = alloca { i64, i64 }, align 8
  store ptr %this, ptr %this.addr, align 8
  %this1 = load ptr, ptr %this.addr, align 8
  %call = call noundef ptr @_ZN3zmq14encoder_base_tINS_14v3_1_encoder_tEE11in_progressEv(ptr noundef nonnull align 8 dereferenceable(72) %this1)
  %call2 = call noundef i64 @_ZNK3zmq5msg_t4sizeEv(ptr noundef nonnull align 8 dereferenceable(64) %call)
  store i64 %call2, ptr %size, align 8
  store i64 2, ptr %header_size, align 8
  %_tmp_buf = getelementptr inbounds %"class.zmq::v3_1_encoder_t", ptr %this1, i32 0, i32 1
  %arrayidx = getelementptr inbounds [19 x i8], ptr %_tmp_buf, i64 0, i64 0
  store ptr %arrayidx, ptr %protocol_flags, align 8
  %0 = load ptr, ptr %protocol_flags, align 8
  store i8 0, ptr %0, align 1
  %call3 = call noundef ptr @_ZN3zmq14encoder_base_tINS_14v3_1_encoder_tEE11in_progressEv(ptr noundef nonnull align 8 dereferenceable(72) %this1)
  %call4 = call noundef zeroext i8 @_ZNK3zmq5msg_t5flagsEv(ptr noundef nonnull align 8 dereferenceable(64) %call3)
  %conv = zext i8 %call4 to i32
  %and = and i32 %conv, 1
  %tobool = icmp ne i32 %and, 0
  br i1 %tobool, label %if.then, label %if.end

if.then:                                          ; preds = %entry
  %1 = load ptr, ptr %protocol_flags, align 8
  %2 = load i8, ptr %1, align 1
  %conv5 = zext i8 %2 to i32
  %or = or i32 %conv5, 1
  %conv6 = trunc i32 %or to i8
  store i8 %conv6, ptr %1, align 1
  br label %if.end

if.end:                                           ; preds = %if.then, %entry
  %call7 = call noundef ptr @_ZN3zmq14encoder_base_tINS_14v3_1_encoder_tEE11in_progressEv(ptr noundef nonnull align 8 dereferenceable(72) %this1)
  %call8 = call noundef zeroext i8 @_ZNK3zmq5msg_t5flagsEv(ptr noundef nonnull align 8 dereferenceable(64) %call7)
  %conv9 = zext i8 %call8 to i32
  %and10 = and i32 %conv9, 2
  %tobool11 = icmp ne i32 %and10, 0
  br i1 %tobool11, label %if.then17, label %lor.lhs.false

lor.lhs.false:                                    ; preds = %if.end
  %call12 = call noundef ptr @_ZN3zmq14encoder_base_tINS_14v3_1_encoder_tEE11in_progressEv(ptr noundef nonnull align 8 dereferenceable(72) %this1)
  %call13 = call noundef zeroext i1 @_ZNK3zmq5msg_t12is_subscribeEv(ptr noundef nonnull align 8 dereferenceable(64) %call12)
  br i1 %call13, label %if.then17, label %lor.lhs.false14

lor.lhs.false14:                                  ; preds = %lor.lhs.false
  %call15 = call noundef ptr @_ZN3zmq14encoder_base_tINS_14v3_1_encoder_tEE11in_progressEv(ptr noundef nonnull align 8 dereferenceable(72) %this1)
  %call16 = call noundef zeroext i1 @_ZNK3zmq5msg_t9is_cancelEv(ptr noundef nonnull align 8 dereferenceable(64) %call15)
  br i1 %call16, label %if.then17, label %if.end30

if.then17:                                        ; preds = %lor.lhs.false14, %lor.lhs.false, %if.end
  %3 = load ptr, ptr %protocol_flags, align 8
  %4 = load i8, ptr %3, align 1
  %conv18 = zext i8 %4 to i32
  %or19 = or i32 %conv18, 4
  %conv20 = trunc i32 %or19 to i8
  store i8 %conv20, ptr %3, align 1
  %call21 = call noundef ptr @_ZN3zmq14encoder_base_tINS_14v3_1_encoder_tEE11in_progressEv(ptr noundef nonnull align 8 dereferenceable(72) %this1)
  %call22 = call noundef zeroext i1 @_ZNK3zmq5msg_t12is_subscribeEv(ptr noundef nonnull align 8 dereferenceable(64) %call21)
  br i1 %call22, label %if.then23, label %if.else

if.then23:                                        ; preds = %if.then17
  %5 = load i64, ptr %size, align 8
  %add = add i64 %5, 10
  store i64 %add, ptr %size, align 8
  br label %if.end29

if.else:                                          ; preds = %if.then17
  %call24 = call noundef ptr @_ZN3zmq14encoder_base_tINS_14v3_1_encoder_tEE11in_progressEv(ptr noundef nonnull align 8 dereferenceable(72) %this1)
  %call25 = call noundef zeroext i1 @_ZNK3zmq5msg_t9is_cancelEv(ptr noundef nonnull align 8 dereferenceable(64) %call24)
  br i1 %call25, label %if.then26, label %if.end28

if.then26:                                        ; preds = %if.else
  %6 = load i64, ptr %size, align 8
  %add27 = add i64 %6, 7
  store i64 %add27, ptr %size, align 8
  br label %if.end28

if.end28:                                         ; preds = %if.then26, %if.else
  br label %if.end29

if.end29:                                         ; preds = %if.end28, %if.then23
  br label %if.end30

if.end30:                                         ; preds = %if.end29, %lor.lhs.false14
  %7 = load i64, ptr %size, align 8
  %cmp = icmp ugt i64 %7, 255
  br i1 %cmp, label %if.then31, label %if.end35

if.then31:                                        ; preds = %if.end30
  %8 = load ptr, ptr %protocol_flags, align 8
  %9 = load i8, ptr %8, align 1
  %conv32 = zext i8 %9 to i32
  %or33 = or i32 %conv32, 2
  %conv34 = trunc i32 %or33 to i8
  store i8 %conv34, ptr %8, align 1
  br label %if.end35

if.end35:                                         ; preds = %if.then31, %if.end30
  %10 = load i64, ptr %size, align 8
  %cmp36 = icmp ugt i64 %10, 255
  br i1 %cmp36, label %if.then38, label %if.else40

if.then38:                                        ; preds = %if.end35
  %_tmp_buf39 = getelementptr inbounds %"class.zmq::v3_1_encoder_t", ptr %this1, i32 0, i32 1
  %arraydecay = getelementptr inbounds [19 x i8], ptr %_tmp_buf39, i64 0, i64 0
  %add.ptr = getelementptr inbounds i8, ptr %arraydecay, i64 1
  %11 = load i64, ptr %size, align 8
  call void @_ZN3zmq10put_uint64EPhm(ptr noundef %add.ptr, i64 noundef %11)
  store i64 9, ptr %header_size, align 8
  br label %if.end44

if.else40:                                        ; preds = %if.end35
  %12 = load i64, ptr %size, align 8
  %conv41 = trunc i64 %12 to i8
  %_tmp_buf42 = getelementptr inbounds %"class.zmq::v3_1_encoder_t", ptr %this1, i32 0, i32 1
  %arrayidx43 = getelementptr inbounds [19 x i8], ptr %_tmp_buf42, i64 0, i64 1
  store i8 %conv41, ptr %arrayidx43, align 1
  br label %if.end44

if.end44:                                         ; preds = %if.else40, %if.then38
  %call45 = call noundef ptr @_ZN3zmq14encoder_base_tINS_14v3_1_encoder_tEE11in_progressEv(ptr noundef nonnull align 8 dereferenceable(72) %this1)
  %call46 = call noundef zeroext i1 @_ZNK3zmq5msg_t12is_subscribeEv(ptr noundef nonnull align 8 dereferenceable(64) %call45)
  br i1 %call46, label %if.then47, label %if.else52

if.then47:                                        ; preds = %if.end44
  %_tmp_buf48 = getelementptr inbounds %"class.zmq::v3_1_encoder_t", ptr %this1, i32 0, i32 1
  %arraydecay49 = getelementptr inbounds [19 x i8], ptr %_tmp_buf48, i64 0, i64 0
  %13 = load i64, ptr %header_size, align 8
  %add.ptr50 = getelementptr inbounds i8, ptr %arraydecay49, i64 %13
  call void @llvm.memcpy.p0.p0.i64(ptr align 1 %add.ptr50, ptr align 1 @_ZN3zmqL12sub_cmd_nameE, i64 10, i1 false)
  %14 = load i64, ptr %header_size, align 8
  %add51 = add i64 %14, 10
  store i64 %add51, ptr %header_size, align 8
  br label %if.end61

if.else52:                                        ; preds = %if.end44
  %call53 = call noundef ptr @_ZN3zmq14encoder_base_tINS_14v3_1_encoder_tEE11in_progressEv(ptr noundef nonnull align 8 dereferenceable(72) %this1)
  %call54 = call noundef zeroext i1 @_ZNK3zmq5msg_t9is_cancelEv(ptr noundef nonnull align 8 dereferenceable(64) %call53)
  br i1 %call54, label %if.then55, label %if.end60

if.then55:                                        ; preds = %if.else52
  %_tmp_buf56 = getelementptr inbounds %"class.zmq::v3_1_encoder_t", ptr %this1, i32 0, i32 1
  %arraydecay57 = getelementptr inbounds [19 x i8], ptr %_tmp_buf56, i64 0, i64 0
  %15 = load i64, ptr %header_size, align 8
  %add.ptr58 = getelementptr inbounds i8, ptr %arraydecay57, i64 %15
  call void @llvm.memcpy.p0.p0.i64(ptr align 1 %add.ptr58, ptr align 1 @_ZN3zmqL15cancel_cmd_nameE, i64 7, i1 false)
  %16 = load i64, ptr %header_size, align 8
  %add59 = add i64 %16, 7
  store i64 %add59, ptr %header_size, align 8
  br label %if.end60

if.end60:                                         ; preds = %if.then55, %if.else52
  br label %if.end61

if.end61:                                         ; preds = %if.end60, %if.then47
  %_tmp_buf62 = getelementptr inbounds %"class.zmq::v3_1_encoder_t", ptr %this1, i32 0, i32 1
  %arraydecay63 = getelementptr inbounds [19 x i8], ptr %_tmp_buf62, i64 0, i64 0
  %17 = load i64, ptr %header_size, align 8
  store { i64, i64 } { i64 ptrtoint (ptr @_ZN3zmq14v3_1_encoder_t10size_readyEv to i64), i64 0 }, ptr %coerce, align 8
  %18 = getelementptr inbounds { i64, i64 }, ptr %coerce, i32 0, i32 0
  %19 = load i64, ptr %18, align 8
  %20 = getelementptr inbounds { i64, i64 }, ptr %coerce, i32 0, i32 1
  %21 = load i64, ptr %20, align 8
  call void @_ZN3zmq14encoder_base_tINS_14v3_1_encoder_tEE9next_stepEPvmMS1_FvvEb(ptr noundef nonnull align 8 dereferenceable(72) %this1, ptr noundef %arraydecay63, i64 noundef %17, i64 %19, i64 %21, i1 noundef zeroext false)
  ret void
}