; Function Attrs: mustprogress uwtable
define void @_ZN3zmq14v3_1_encoder_t13message_readyEv(ptr noundef nonnull align 8 dereferenceable(96) %this) #0 align 2 {
entry:
  %_in_progress.i = getelementptr inbounds i8, ptr %this, i64 64
  %0 = load ptr, ptr %_in_progress.i, align 8
  %call2 = tail call noundef i64 @_ZNK3zmq5msg_t4sizeEv(ptr noundef nonnull align 8 dereferenceable(64) %0)
  %_tmp_buf = getelementptr inbounds i8, ptr %this, i64 72
  store i8 0, ptr %_tmp_buf, align 8
  %1 = load ptr, ptr %_in_progress.i, align 8
  %call4 = tail call noundef zeroext i8 @_ZNK3zmq5msg_t5flagsEv(ptr noundef nonnull align 8 dereferenceable(64) %1)
  %2 = and i8 %call4, 1
  %tobool.not = icmp eq i8 %2, 0
  br i1 %tobool.not, label %if.end, label %if.then

if.then:                                          ; preds = %entry
  %3 = load i8, ptr %_tmp_buf, align 8
  %4 = or i8 %3, 1
  store i8 %4, ptr %_tmp_buf, align 8
  br label %if.end

if.end:                                           ; preds = %if.then, %entry
  %5 = load ptr, ptr %_in_progress.i, align 8
  %call8 = tail call noundef zeroext i8 @_ZNK3zmq5msg_t5flagsEv(ptr noundef nonnull align 8 dereferenceable(64) %5)
  %6 = and i8 %call8, 2
  %tobool11.not = icmp eq i8 %6, 0
  %.pre = load ptr, ptr %_in_progress.i, align 8
  br i1 %tobool11.not, label %lor.lhs.false, label %if.then17

lor.lhs.false:                                    ; preds = %if.end
  %flags.i = getelementptr inbounds i8, ptr %.pre, i64 43
  %7 = load i8, ptr %flags.i, align 1
  %8 = and i8 %7, 28
  switch i8 %8, label %if.end30 [
    i8 12, label %if.then17
    i8 16, label %if.then17
  ]

if.then17:                                        ; preds = %lor.lhs.false, %lor.lhs.false, %if.end
  %9 = load i8, ptr %_tmp_buf, align 8
  %10 = or i8 %9, 4
  store i8 %10, ptr %_tmp_buf, align 8
  %flags.i20 = getelementptr inbounds i8, ptr %.pre, i64 43
  %11 = load i8, ptr %flags.i20, align 1
  %12 = and i8 %11, 28
  %cmp.i21 = icmp eq i8 %12, 12
  br i1 %cmp.i21, label %if.then23, label %if.else

if.then23:                                        ; preds = %if.then17
  %add = add i64 %call2, 10
  br label %if.end30

if.else:                                          ; preds = %if.then17
  %cmp.i24 = icmp eq i8 %12, 16
  %add27 = add i64 %call2, 7
  %spec.select = select i1 %cmp.i24, i64 %add27, i64 %call2
  br label %if.end30

if.end30:                                         ; preds = %lor.lhs.false, %if.else, %if.then23
  %size.0 = phi i64 [ %add, %if.then23 ], [ %spec.select, %if.else ], [ %call2, %lor.lhs.false ]
  %cmp = icmp ugt i64 %size.0, 255
  br i1 %cmp, label %if.then31, label %if.end44

if.then31:                                        ; preds = %if.end30
  %13 = load i8, ptr %_tmp_buf, align 8
  %14 = or i8 %13, 2
  store i8 %14, ptr %_tmp_buf, align 8
  %shr.i = lshr i64 %size.0, 56
  %shr1.i = lshr i64 %size.0, 48
  %conv3.i = trunc i64 %shr1.i to i8
  %arrayidx4.i = getelementptr inbounds i8, ptr %this, i64 74
  store i8 %conv3.i, ptr %arrayidx4.i, align 2
  %shr5.i = lshr i64 %size.0, 40
  %conv7.i = trunc i64 %shr5.i to i8
  %arrayidx8.i = getelementptr inbounds i8, ptr %this, i64 75
  store i8 %conv7.i, ptr %arrayidx8.i, align 1
  %shr9.i = lshr i64 %size.0, 32
  %conv11.i = trunc i64 %shr9.i to i8
  %arrayidx12.i = getelementptr inbounds i8, ptr %this, i64 76
  store i8 %conv11.i, ptr %arrayidx12.i, align 4
  %shr13.i = lshr i64 %size.0, 24
  %conv15.i = trunc i64 %shr13.i to i8
  %arrayidx16.i = getelementptr inbounds i8, ptr %this, i64 77
  store i8 %conv15.i, ptr %arrayidx16.i, align 1
  %shr17.i = lshr i64 %size.0, 16
  %conv19.i = trunc i64 %shr17.i to i8
  %arrayidx20.i = getelementptr inbounds i8, ptr %this, i64 78
  store i8 %conv19.i, ptr %arrayidx20.i, align 2
  %shr21.i = lshr i64 %size.0, 8
  %conv23.i = trunc i64 %shr21.i to i8
  %arrayidx24.i = getelementptr inbounds i8, ptr %this, i64 79
  store i8 %conv23.i, ptr %arrayidx24.i, align 1
  %conv26.i = trunc i64 %size.0 to i8
  %arrayidx27.i = getelementptr inbounds i8, ptr %this, i64 80
  store i8 %conv26.i, ptr %arrayidx27.i, align 8
  br label %if.end44

if.end44:                                         ; preds = %if.end30, %if.then31
  %conv41.sink.in = phi i64 [ %shr.i, %if.then31 ], [ %size.0, %if.end30 ]
  %header_size.0 = phi i64 [ 9, %if.then31 ], [ 2, %if.end30 ]
  %conv41.sink = trunc i64 %conv41.sink.in to i8
  %15 = getelementptr inbounds i8, ptr %this, i64 73
  store i8 %conv41.sink, ptr %15, align 1
  %flags.i26 = getelementptr inbounds i8, ptr %.pre, i64 43
  %16 = load i8, ptr %flags.i26, align 1
  %17 = and i8 %16, 28
  switch i8 %17, label %if.end61 [
    i8 12, label %if.then47
    i8 16, label %if.then55
  ]

if.then47:                                        ; preds = %if.end44
  %add.ptr50 = getelementptr inbounds i8, ptr %_tmp_buf, i64 %header_size.0
  tail call void @llvm.memcpy.p0.p0.i64(ptr noundef nonnull align 1 dereferenceable(10) %add.ptr50, ptr noundef nonnull align 1 dereferenceable(10) @_ZN3zmqL12sub_cmd_nameE, i64 10, i1 false)
  %add51 = add nuw nsw i64 %header_size.0, 10
  br label %if.end61

if.then55:                                        ; preds = %if.end44
  %add.ptr58 = getelementptr inbounds i8, ptr %_tmp_buf, i64 %header_size.0
  tail call void @llvm.memcpy.p0.p0.i64(ptr noundef nonnull align 1 dereferenceable(7) %add.ptr58, ptr noundef nonnull align 1 dereferenceable(7) @_ZN3zmqL15cancel_cmd_nameE, i64 7, i1 false)
  %add59 = add nuw nsw i64 %header_size.0, 7
  br label %if.end61

if.end61:                                         ; preds = %if.end44, %if.then55, %if.then47
  %header_size.1 = phi i64 [ %add51, %if.then47 ], [ %add59, %if.then55 ], [ %header_size.0, %if.end44 ]
  %_write_pos.i = getelementptr inbounds i8, ptr %this, i64 8
  store ptr %_tmp_buf, ptr %_write_pos.i, align 8
  %_to_write.i = getelementptr inbounds i8, ptr %this, i64 16
  store i64 %header_size.1, ptr %_to_write.i, align 8
  %_next.i = getelementptr inbounds i8, ptr %this, i64 24
  store i64 ptrtoint (ptr @_ZN3zmq14v3_1_encoder_t10size_readyEv to i64), ptr %_next.i, align 8
  %_next.repack1.i = getelementptr inbounds i8, ptr %this, i64 32
  store i64 0, ptr %_next.repack1.i, align 8
  %_new_msg_flag.i = getelementptr inbounds i8, ptr %this, i64 40
  store i8 0, ptr %_new_msg_flag.i, align 8
  ret void
}